target datalayout = "e-m:e-p270:32:32-p271:32:32-p272:64:64-i64:64-i128:128-f80:128-n8:16:32:64-S128"
target triple = "x86_64-pc-linux-gnu"

%union.anon = type { i32 }
%struct.cdf_sat_t = type { ptr, i64 }

@cdf_bo = internal global %union.anon zeroinitializer, align 4

; Function Attrs: nounwind uwtable
define internal i32 @_cdf_tole4(i32 noundef %0) #0 {
  %2 = alloca i32, align 4
  %3 = alloca i32, align 4
  %4 = alloca ptr, align 8
  %5 = alloca ptr, align 8
  store i32 %0, ptr %2, align 4, !tbaa !12
  call void @llvm.lifetime.start.p0(i64 4, ptr %3) #13
  call void @llvm.lifetime.start.p0(i64 8, ptr %4) #13
  %6 = ptrtoint ptr %2 to i64
  %7 = inttoptr i64 %6 to ptr
  %8 = ptrtoint ptr %7 to i64
  %9 = inttoptr i64 %8 to ptr
  store ptr %9, ptr %4, align 8, !tbaa !9
  call void @llvm.lifetime.start.p0(i64 8, ptr %5) #13
  %10 = ptrtoint ptr %3 to i64
  %11 = inttoptr i64 %10 to ptr
  %12 = ptrtoint ptr %11 to i64
  %13 = inttoptr i64 %12 to ptr
  store ptr %13, ptr %5, align 8, !tbaa !9
  %14 = load ptr, ptr %4, align 8, !tbaa !9
  %15 = getelementptr inbounds i8, ptr %14, i64 3
  %16 = load i8, ptr %15, align 1, !tbaa !8
  %17 = load ptr, ptr %5, align 8, !tbaa !9
  %18 = getelementptr inbounds i8, ptr %17, i64 0
  store i8 %16, ptr %18, align 1, !tbaa !8
  %19 = load ptr, ptr %4, align 8, !tbaa !9
  %20 = getelementptr inbounds i8, ptr %19, i64 2
  %21 = load i8, ptr %20, align 1, !tbaa !8
  %22 = load ptr, ptr %5, align 8, !tbaa !9
  %23 = getelementptr inbounds i8, ptr %22, i64 1
  store i8 %21, ptr %23, align 1, !tbaa !8
  %24 = load ptr, ptr %4, align 8, !tbaa !9
  %25 = getelementptr inbounds i8, ptr %24, i64 1
  %26 = load i8, ptr %25, align 1, !tbaa !8
  %27 = load ptr, ptr %5, align 8, !tbaa !9
  %28 = getelementptr inbounds i8, ptr %27, i64 2
  store i8 %26, ptr %28, align 1, !tbaa !8
  %29 = load ptr, ptr %4, align 8, !tbaa !9
  %30 = getelementptr inbounds i8, ptr %29, i64 0
  %31 = load i8, ptr %30, align 1, !tbaa !8
  %32 = load ptr, ptr %5, align 8, !tbaa !9
  %33 = getelementptr inbounds i8, ptr %32, i64 3
  store i8 %31, ptr %33, align 1, !tbaa !8
  %34 = load i32, ptr %3, align 4, !tbaa !12
  call void @llvm.lifetime.end.p0(i64 8, ptr %5) #13
  call void @llvm.lifetime.end.p0(i64 8, ptr %4) #13
  call void @llvm.lifetime.end.p0(i64 4, ptr %3) #13
  ret i32 %34
}

; Function Attrs: nounwind uwtable
define hidden i64 @cdf_count_chain(ptr noundef %0, i32 noundef %1, i64 noundef %2) #0 {
  %4 = alloca i64, align 8
  %5 = alloca ptr, align 8
  %6 = alloca i32, align 4
  %7 = alloca i64, align 8
  %8 = alloca i64, align 8
  %9 = alloca i64, align 8
  %10 = alloca i32, align 4
  %11 = alloca i32, align 4
  store ptr %0, ptr %5, align 8, !tbaa !16
  store i32 %1, ptr %6, align 4, !tbaa !12
  store i64 %2, ptr %7, align 8, !tbaa !14
  call void @llvm.lifetime.start.p0(i64 8, ptr %8) #13
  call void @llvm.lifetime.start.p0(i64 8, ptr %9) #13
  call void @llvm.lifetime.start.p0(i64 4, ptr %10) #13
  %12 = load ptr, ptr %5, align 8, !tbaa !16
  %13 = getelementptr inbounds nuw %struct.cdf_sat_t, ptr %12, i32 0, i32 1
  %14 = load i64, ptr %13, align 8, !tbaa !52
  %15 = load i64, ptr %7, align 8, !tbaa !14
  %16 = mul i64 %14, %15
  %17 = udiv i64 %16, 4
  %18 = trunc i64 %17 to i32
  store i32 %18, ptr %10, align 4, !tbaa !12
  %19 = load i32, ptr %6, align 4, !tbaa !12
  %20 = icmp eq i32 %19, -2
  br i1 %20, label %21, label %22

21:                                               ; preds = %3
  store i64 0, ptr %4, align 8
  store i32 1, ptr %11, align 4
  br label %70

22:                                               ; preds = %3
  store i64 0, ptr %8, align 8, !tbaa !14
  store i64 0, ptr %9, align 8, !tbaa !14
  br label %23

23:                                               ; preds = %57, %22
  %24 = load i32, ptr %6, align 4, !tbaa !12
  %25 = icmp sge i32 %24, 0
  br i1 %25, label %26, label %62

26:                                               ; preds = %23
  %27 = load i64, ptr %9, align 8, !tbaa !14
  %28 = icmp uge i64 %27, 10000
  br i1 %28, label %29, label %30

29:                                               ; preds = %26
  br label %68

30:                                               ; preds = %26
  %31 = load i32, ptr %6, align 4, !tbaa !12
  %32 = load i32, ptr %10, align 4, !tbaa !12
  %33 = icmp sge i32 %31, %32
  br i1 %33, label %34, label %35

34:                                               ; preds = %30
  br label %68

35:                                               ; preds = %30
  %36 = load i32, ptr @cdf_bo, align 4, !tbaa !8
  %37 = icmp eq i32 %36, 16909060
  br i1 %37, label %38, label %47

38:                                               ; preds = %35
  %39 = load ptr, ptr %5, align 8, !tbaa !16
  %40 = getelementptr inbounds nuw %struct.cdf_sat_t, ptr %39, i32 0, i32 0
  %41 = load ptr, ptr %40, align 8, !tbaa !55
  %42 = load i32, ptr %6, align 4, !tbaa !12
  %43 = sext i32 %42 to i64
  %44 = getelementptr inbounds i32, ptr %41, i64 %43
  %45 = load i32, ptr %44, align 4, !tbaa !12
  %46 = call i32 @_cdf_tole4(i32 noundef %45)
  br label %55

47:                                               ; preds = %35
  %48 = load ptr, ptr %5, align 8, !tbaa !16
  %49 = getelementptr inbounds nuw %struct.cdf_sat_t, ptr %48, i32 0, i32 0
  %50 = load ptr, ptr %49, align 8, !tbaa !55
  %51 = load i32, ptr %6, align 4, !tbaa !12
  %52 = sext i32 %51 to i64
  %53 = getelementptr inbounds i32, ptr %50, i64 %52
  %54 = load i32, ptr %53, align 4, !tbaa !12
  br label %55

55:                                               ; preds = %47, %38
  %56 = phi i32 [ %46, %38 ], [ %54, %47 ]
  store i32 %56, ptr %6, align 4, !tbaa !12
  br label %57

57:                                               ; preds = %55
  %58 = load i64, ptr %8, align 8, !tbaa !14
  %59 = add i64 %58, 1
  store i64 %59, ptr %8, align 8, !tbaa !14
  %60 = load i64, ptr %9, align 8, !tbaa !14
  %61 = add i64 %60, 1
  store i64 %61, ptr %9, align 8, !tbaa !14
  br label %23

62:                                               ; preds = %23
  %63 = load i64, ptr %8, align 8, !tbaa !14
  %64 = icmp eq i64 %63, 0
  br i1 %64, label %65, label %66

65:                                               ; preds = %62
  br label %68

66:                                               ; preds = %62
  %67 = load i64, ptr %8, align 8, !tbaa !14
  store i64 %67, ptr %4, align 8
  store i32 1, ptr %11, align 4
  br label %70

68:                                               ; preds = %65, %34, %29
  %69 = call ptr @__errno_location() #14
  store i32 22, ptr %69, align 4, !tbaa !12
  store i64 -1, ptr %4, align 8
  store i32 1, ptr %11, align 4
  br label %70

70:                                               ; preds = %68, %66, %21
  call void @llvm.lifetime.end.p0(i64 4, ptr %10) #13
  call void @llvm.lifetime.end.p0(i64 8, ptr %9) #13
  call void @llvm.lifetime.end.p0(i64 8, ptr %8) #13
  %71 = load i64, ptr %4, align 8
  ret i64 %71
}