; Function Attrs: nofree nosync nounwind memory(readwrite, inaccessiblemem: none) uwtable
define hidden range(i64 -1, 10001) i64 @cdf_count_chain(ptr noundef readonly captures(none) %0, i32 noundef %1, i64 noundef %2) local_unnamed_addr #12 {
  %4 = getelementptr inbounds nuw i8, ptr %0, i64 8
  %5 = load i64, ptr %4, align 8, !tbaa !24
  %6 = mul i64 %5, %2
  %7 = lshr i64 %6, 2
  %8 = trunc i64 %7 to i32
  %9 = icmp eq i32 %1, -2
  br i1 %9, label %._crit_edge.thread, label %.preheader

.preheader:                                       ; preds = %3
  %10 = icmp sgt i32 %1, -1
  br i1 %10, label %.lr.ph.split, label %.loopexit

.lr.ph.split:                                     ; preds = %.preheader, %12
  %.01522 = phi i64 [ %17, %12 ], [ 0, %.preheader ]
  %.01720 = phi i32 [ %16, %12 ], [ %1, %.preheader ]
  %11 = icmp samesign ult i64 %.01522, 10000
  %.not = icmp slt i32 %.01720, %8
  %or.cond = select i1 %11, i1 %.not, i1 false
  br i1 %or.cond, label %12, label %.loopexit

12:                                               ; preds = %.lr.ph.split
  %13 = load ptr, ptr %0, align 8, !tbaa !27
  %14 = zext nneg i32 %.01720 to i64
  %15 = getelementptr inbounds nuw i32, ptr %13, i64 %14
  %16 = load i32, ptr %15, align 4, !tbaa !21
  %17 = add nuw nsw i64 %.01522, 1
  %18 = icmp sgt i32 %16, -1
  br i1 %18, label %.lr.ph.split, label %._crit_edge.thread

.loopexit:                                        ; preds = %.lr.ph.split, %.preheader
  %19 = tail call ptr @__errno_location() #22
  store i32 22, ptr %19, align 4, !tbaa !21
  br label %._crit_edge.thread

._crit_edge.thread:                               ; preds = %12, %3, %.loopexit
  %.0 = phi i64 [ -1, %.loopexit ], [ 0, %3 ], [ %17, %12 ]
  ret i64 %.0
}